; Function Attrs: mustprogress uwtable
define void @_ZN32pxrInternal_v0_24__pxrReserved__40UsdImagingDataSourceXformResetXformStack8GetValueEf(ptr dead_on_unwind noalias writable writeonly sret(%"class.pxrInternal_v0_24__pxrReserved__::VtValue") align 8 captures(none) initializes((0, 1), (8, 16)) %0, ptr noundef nonnull align 8 dereferenceable(48) %1, float noundef %2) unnamed_addr #0 align 2 personality ptr @__gxx_personality_v0 {
  %4 = load ptr, ptr %1, align 8
  %5 = getelementptr inbounds nuw i8, ptr %4, i64 32
  %6 = load ptr, ptr %5, align 8
  %7 = tail call noundef zeroext i1 %6(ptr noundef nonnull align 8 dereferenceable(48) %1, float noundef %2)
  %8 = zext i1 %7 to i8
  %9 = getelementptr inbounds nuw i8, ptr %0, i64 8
  %10 = or disjoint i64 3, ptrtoint (ptr @_ZZN32pxrInternal_v0_24__pxrReserved__7VtValue11GetTypeInfoIbEENS_16TfPointerAndBitsIKNS0_9_TypeInfoEEEvE2ti to i64)
  %11 = inttoptr i64 %10 to ptr
  store ptr %11, ptr %9, align 8
  store i8 %8, ptr %0, align 8
  ret void
}